target datalayout = "e-m:e-p270:32:32-p271:32:32-p272:64:64-i64:64-i128:128-f80:128-n8:16:32:64-S128"
target triple = "x86_64-pc-linux-gnu"

%"struct.duckdb_libpgquery::yyguts_t" = type { ptr, ptr, ptr, i64, i64, ptr, i8, i64, i64, ptr, i32, i32, i32, i32, i32, ptr, i32, ptr, i32, i32, ptr, i32, i32, ptr, ptr }
%"struct.duckdb_libpgquery::yy_buffer_state" = type { ptr, ptr, ptr, i64, i64, i32, i32, i32, i32, i32, i32, i32 }

@.str.31 = private unnamed_addr constant [35 x i8] c"yyset_lineno called with no buffer\00", align 1

; Function Attrs: mustprogress uwtable
define hidden void @_ZN17duckdb_libpgquery17core_yyset_linenoEiPv(i32 noundef %0, ptr noundef %1) #0 {
  %3 = alloca i32, align 4
  %4 = alloca ptr, align 8
  %5 = alloca ptr, align 8
  store i32 %0, ptr %3, align 4, !tbaa !33
  store ptr %1, ptr %4, align 8, !tbaa !10
  call void @llvm.lifetime.start.p0(i64 8, ptr %5) #11
  %6 = load ptr, ptr %4, align 8, !tbaa !10
  store ptr %6, ptr %5, align 8, !tbaa !11
  %7 = load ptr, ptr %5, align 8, !tbaa !11
  %8 = getelementptr inbounds nuw %"struct.duckdb_libpgquery::yyguts_t", ptr %7, i32 0, i32 5
  %9 = load ptr, ptr %8, align 8, !tbaa !24
  %10 = icmp ne ptr %9, null
  br i1 %10, label %11, label %20

11:                                               ; preds = %2
  %12 = load ptr, ptr %5, align 8, !tbaa !11
  %13 = getelementptr inbounds nuw %"struct.duckdb_libpgquery::yyguts_t", ptr %12, i32 0, i32 5
  %14 = load ptr, ptr %13, align 8, !tbaa !24
  %15 = load ptr, ptr %5, align 8, !tbaa !11
  %16 = getelementptr inbounds nuw %"struct.duckdb_libpgquery::yyguts_t", ptr %15, i32 0, i32 3
  %17 = load i64, ptr %16, align 8, !tbaa !25
  %18 = getelementptr inbounds nuw ptr, ptr %14, i64 %17
  %19 = load ptr, ptr %18, align 8, !tbaa !26
  br label %21

20:                                               ; preds = %2
  br label %21

21:                                               ; preds = %20, %11
  %22 = phi ptr [ %19, %11 ], [ null, %20 ]
  %23 = icmp ne ptr %22, null
  br i1 %23, label %26, label %24

24:                                               ; preds = %21
  %25 = load ptr, ptr %4, align 8, !tbaa !10
  call void @_ZN17duckdb_libpgqueryL14yy_fatal_errorEPKcPv(ptr noundef @.str.31, ptr noundef %25) #13
  unreachable

26:                                               ; preds = %21
  %27 = load i32, ptr %3, align 4, !tbaa !33
  %28 = load ptr, ptr %5, align 8, !tbaa !11
  %29 = getelementptr inbounds nuw %"struct.duckdb_libpgquery::yyguts_t", ptr %28, i32 0, i32 5
  %30 = load ptr, ptr %29, align 8, !tbaa !24
  %31 = load ptr, ptr %5, align 8, !tbaa !11
  %32 = getelementptr inbounds nuw %"struct.duckdb_libpgquery::yyguts_t", ptr %31, i32 0, i32 3
  %33 = load i64, ptr %32, align 8, !tbaa !25
  %34 = getelementptr inbounds nuw ptr, ptr %30, i64 %33
  %35 = load ptr, ptr %34, align 8, !tbaa !26
  %36 = getelementptr inbounds nuw %"struct.duckdb_libpgquery::yy_buffer_state", ptr %35, i32 0, i32 8
  store i32 %27, ptr %36, align 4, !tbaa !95
  call void @llvm.lifetime.end.p0(i64 8, ptr %5) #11
  ret void
}