; Function Attrs: mustprogress uwtable
define hidden void @_ZN17duckdb_libpgquery17core_yyset_linenoEiPv(i32 noundef %0, ptr noundef readonly captures(none) %1) local_unnamed_addr #0 {
  %3 = getelementptr inbounds nuw i8, ptr %1, i64 40
  %4 = load ptr, ptr %3, align 8, !tbaa !19
  %.not = icmp eq ptr %4, null
  br i1 %.not, label %.critedge, label %5

5:                                                ; preds = %2
  %6 = getelementptr inbounds nuw i8, ptr %1, i64 24
  %7 = load i64, ptr %6, align 8, !tbaa !20
  %8 = getelementptr inbounds nuw ptr, ptr %4, i64 %7
  %9 = load ptr, ptr %8, align 8, !tbaa !21
  %10 = icmp eq ptr %9, null
  br i1 %10, label %.critedge, label %11

.critedge:                                        ; preds = %2, %5
  tail call fastcc void @_ZN17duckdb_libpgqueryL14yy_fatal_errorEPKcPv(ptr noundef nonnull @.str.31) #20
  unreachable

11:                                               ; preds = %5
  %12 = getelementptr inbounds nuw i8, ptr %9, i64 52
  store i32 %0, ptr %12, align 4, !tbaa !85
  ret void
}